target datalayout = "e-m:e-p270:32:32-p271:32:32-p272:64:64-i64:64-i128:128-f80:128-n8:16:32:64-S128"
target triple = "x86_64-pc-linux-gnu"

%struct.rb_data_type_struct = type { ptr, %struct.anon, ptr, ptr, i64 }
%struct.anon = type { ptr, ptr, ptr, ptr, [1 x ptr] }

@ossl_ssl_type = constant %struct.rb_data_type_struct { ptr @.str, %struct.anon { ptr @ossl_ssl_mark, ptr @ossl_ssl_free, ptr null, ptr null, [1 x ptr] zeroinitializer }, ptr null, ptr null, i64 33 }, align 8
@rb_eRuntimeError = external global i64, align 8
@.str.267 = private unnamed_addr constant [23 x i8] c"SSL is not initialized\00", align 1

; Function Attrs: inlinehint nounwind sspstrong uwtable
define internal ptr @ossl_check_const_X509_sk_type(ptr noundef %0) #4 {
  %2 = alloca ptr, align 8
  store ptr %0, ptr %2, align 8, !tbaa !34
  %3 = load ptr, ptr %2, align 8, !tbaa !34
  ret ptr %3
}

; Function Attrs: nounwind sspstrong uwtable
define internal i64 @ossl_ssl_get_peer_cert_chain(i64 noundef %0) #0 {
  %2 = alloca i64, align 8
  %3 = alloca i64, align 8
  %4 = alloca ptr, align 8
  %5 = alloca ptr, align 8
  %6 = alloca ptr, align 8
  %7 = alloca i64, align 8
  %8 = alloca i32, align 4
  %9 = alloca i32, align 4
  %10 = alloca i32, align 4
  store i64 %0, ptr %3, align 8, !tbaa !14
  call void @llvm.lifetime.start.p0(i64 8, ptr %4) #20
  call void @llvm.lifetime.start.p0(i64 8, ptr %5) #20
  call void @llvm.lifetime.start.p0(i64 8, ptr %6) #20
  call void @llvm.lifetime.start.p0(i64 8, ptr %7) #20
  call void @llvm.lifetime.start.p0(i64 4, ptr %8) #20
  call void @llvm.lifetime.start.p0(i64 4, ptr %9) #20
  br label %11

11:                                               ; preds = %1
  %12 = load i64, ptr %3, align 8, !tbaa !14
  %13 = call ptr @rb_check_typeddata(i64 noundef %12, ptr noundef @ossl_ssl_type)
  store ptr %13, ptr %4, align 8, !tbaa !10
  %14 = load ptr, ptr %4, align 8, !tbaa !10
  %15 = icmp ne ptr %14, null
  br i1 %15, label %18, label %16

16:                                               ; preds = %11
  %17 = load i64, ptr @rb_eRuntimeError, align 8, !tbaa !14
  call void (i64, ptr, ...) @ossl_raise(i64 noundef %17, ptr noundef @.str.267) #22
  unreachable

18:                                               ; preds = %11
  br label %19

19:                                               ; preds = %18
  br label %20

20:                                               ; preds = %19
  %21 = load ptr, ptr %4, align 8, !tbaa !10
  %22 = call ptr @SSL_get_peer_cert_chain(ptr noundef %21)
  store ptr %22, ptr %5, align 8, !tbaa !34
  %23 = load ptr, ptr %5, align 8, !tbaa !34
  %24 = icmp ne ptr %23, null
  br i1 %24, label %26, label %25

25:                                               ; preds = %20
  store i64 4, ptr %2, align 8
  store i32 1, ptr %10, align 4
  br label %51

26:                                               ; preds = %20
  %27 = load ptr, ptr %5, align 8, !tbaa !34
  %28 = call ptr @ossl_check_const_X509_sk_type(ptr noundef %27)
  %29 = call i32 @OPENSSL_sk_num(ptr noundef %28)
  store i32 %29, ptr %9, align 4, !tbaa !12
  %30 = load i32, ptr %9, align 4, !tbaa !12
  %31 = sext i32 %30 to i64
  %32 = call i64 @rb_ary_new_capa(i64 noundef %31)
  store i64 %32, ptr %7, align 8, !tbaa !14
  store i32 0, ptr %8, align 4, !tbaa !12
  br label %33

33:                                               ; preds = %46, %26
  %34 = load i32, ptr %8, align 4, !tbaa !12
  %35 = load i32, ptr %9, align 4, !tbaa !12
  %36 = icmp slt i32 %34, %35
  br i1 %36, label %37, label %49

37:                                               ; preds = %33
  %38 = load ptr, ptr %5, align 8, !tbaa !34
  %39 = call ptr @ossl_check_const_X509_sk_type(ptr noundef %38)
  %40 = load i32, ptr %8, align 4, !tbaa !12
  %41 = call ptr @OPENSSL_sk_value(ptr noundef %39, i32 noundef %40)
  store ptr %41, ptr %6, align 8, !tbaa !36
  %42 = load i64, ptr %7, align 8, !tbaa !14
  %43 = load ptr, ptr %6, align 8, !tbaa !36
  %44 = call i64 @ossl_x509_new(ptr noundef %43)
  %45 = call i64 @rb_ary_push(i64 noundef %42, i64 noundef %44)
  br label %46

46:                                               ; preds = %37
  %47 = load i32, ptr %8, align 4, !tbaa !12
  %48 = add nsw i32 %47, 1
  store i32 %48, ptr %8, align 4, !tbaa !12
  br label %33, !llvm.loop !45

49:                                               ; preds = %33
  %50 = load i64, ptr %7, align 8, !tbaa !14
  store i64 %50, ptr %2, align 8
  store i32 1, ptr %10, align 4
  br label %51

51:                                               ; preds = %49, %25
  call void @llvm.lifetime.end.p0(i64 4, ptr %9) #20
  call void @llvm.lifetime.end.p0(i64 4, ptr %8) #20
  call void @llvm.lifetime.end.p0(i64 8, ptr %7) #20
  call void @llvm.lifetime.end.p0(i64 8, ptr %6) #20
  call void @llvm.lifetime.end.p0(i64 8, ptr %5) #20
  call void @llvm.lifetime.end.p0(i64 8, ptr %4) #20
  %52 = load i64, ptr %2, align 8
  ret i64 %52
}