; Function Attrs: nounwind sspstrong uwtable
define internal i64 @ossl_ssl_get_peer_cert_chain(i64 noundef %0) #0 {
  %2 = tail call ptr @rb_check_typeddata(i64 noundef %0, ptr noundef nonnull @ossl_ssl_type) #9
  %.not = icmp eq ptr %2, null
  br i1 %.not, label %3, label %5

3:                                                ; preds = %1
  %4 = load i64, ptr @rb_eRuntimeError, align 8, !tbaa !10
  tail call void (i64, ptr, ...) @ossl_raise(i64 noundef %4, ptr noundef nonnull @.str.267) #10
  unreachable

5:                                                ; preds = %1
  %6 = tail call ptr @SSL_get_peer_cert_chain(ptr noundef nonnull %2) #9
  %.not17 = icmp eq ptr %6, null
  br i1 %.not17, label %.loopexit, label %7

7:                                                ; preds = %5
  %8 = tail call i32 @OPENSSL_sk_num(ptr noundef nonnull %6) #9
  %9 = sext i32 %8 to i64
  %10 = tail call i64 @rb_ary_new_capa(i64 noundef %9) #9
  %11 = icmp sgt i32 %8, 0
  br i1 %11, label %.lr.ph, label %.loopexit

.lr.ph:                                           ; preds = %7, %.lr.ph
  %.01418 = phi i32 [ %15, %.lr.ph ], [ 0, %7 ]
  %12 = tail call ptr @OPENSSL_sk_value(ptr noundef nonnull %6, i32 noundef %.01418) #9
  %13 = tail call i64 @ossl_x509_new(ptr noundef %12) #9
  %14 = tail call i64 @rb_ary_push(i64 noundef %10, i64 noundef %13) #9
  %15 = add nuw nsw i32 %.01418, 1
  %exitcond.not = icmp eq i32 %15, %8
  br i1 %exitcond.not, label %.loopexit, label %.lr.ph, !llvm.loop !43

.loopexit:                                        ; preds = %.lr.ph, %7, %5
  %.0 = phi i64 [ 4, %5 ], [ %10, %7 ], [ %10, %.lr.ph ]
  ret i64 %.0
}